; ModuleID = '31/746.c'
source_filename = "31/746.c"
target datalayout = "e-m:e-p270:32:32-p271:32:32-p272:64:64-i64:64-f80:128-n8:16:32:64-S128"
target triple = "x86_64-pc-linux-gnu"

%struct.student = type { [15 x i8], [20 x i8], i8, i32, [20 x i8], [20 x i8], %struct.student* }

@.str = private unnamed_addr constant [17 x i8] c"%s%s %c %d %s %s\00", align 1
@.str.1 = private unnamed_addr constant [3 x i8] c"%s\00", align 1
@.str.2 = private unnamed_addr constant [4 x i8] c"end\00", align 1
@.str.3 = private unnamed_addr constant [15 x i8] c"%s %c %d %s %s\00", align 1
@.str.4 = private unnamed_addr constant [19 x i8] c"%s %s %c %d %s %s\0A\00", align 1

; Function Attrs: noinline nounwind uwtable
define dso_local %struct.student* @set() #0 {
  %1 = alloca %struct.student*, align 8
  %2 = alloca %struct.student*, align 8
  %3 = alloca %struct.student*, align 8
  %4 = call noalias i8* @malloc(i64 100) #4
  %5 = bitcast i8* %4 to %struct.student*
  store %struct.student* %5, %struct.student** %1, align 8
  %6 = load %struct.student*, %struct.student** %1, align 8
  store %struct.student* %6, %struct.student** %2, align 8
  %7 = load %struct.student*, %struct.student** %1, align 8
  store %struct.student* %7, %struct.student** %3, align 8
  %8 = load %struct.student*, %struct.student** %1, align 8
  %9 = getelementptr inbounds %struct.student, %struct.student* %8, i32 0, i32 0
  %10 = getelementptr inbounds [15 x i8], [15 x i8]* %9, i64 0, i64 0
  %11 = load %struct.student*, %struct.student** %1, align 8
  %12 = getelementptr inbounds %struct.student, %struct.student* %11, i32 0, i32 1
  %13 = getelementptr inbounds [20 x i8], [20 x i8]* %12, i64 0, i64 0
  %14 = load %struct.student*, %struct.student** %1, align 8
  %15 = getelementptr inbounds %struct.student, %struct.student* %14, i32 0, i32 2
  %16 = load %struct.student*, %struct.student** %1, align 8
  %17 = getelementptr inbounds %struct.student, %struct.student* %16, i32 0, i32 3
  %18 = load %struct.student*, %struct.student** %1, align 8
  %19 = getelementptr inbounds %struct.student, %struct.student* %18, i32 0, i32 4
  %20 = getelementptr inbounds [20 x i8], [20 x i8]* %19, i64 0, i64 0
  %21 = load %struct.student*, %struct.student** %1, align 8
  %22 = getelementptr inbounds %struct.student, %struct.student* %21, i32 0, i32 5
  %23 = getelementptr inbounds [20 x i8], [20 x i8]* %22, i64 0, i64 0
  %24 = call i32 (i8*, ...) @__isoc99_scanf(i8* getelementptr inbounds ([17 x i8], [17 x i8]* @.str, i64 0, i64 0), i8* %10, i8* %13, i8* %15, i32* %17, i8* %20, i8* %23)
  %25 = call noalias i8* @malloc(i64 100) #4
  %26 = bitcast i8* %25 to %struct.student*
  store %struct.student* %26, %struct.student** %2, align 8
  %27 = load %struct.student*, %struct.student** %2, align 8
  %28 = getelementptr inbounds %struct.student, %struct.student* %27, i32 0, i32 0
  %29 = getelementptr inbounds [15 x i8], [15 x i8]* %28, i64 0, i64 0
  %30 = load %struct.student*, %struct.student** %2, align 8
  %31 = getelementptr inbounds %struct.student, %struct.student* %30, i32 0, i32 1
  %32 = getelementptr inbounds [20 x i8], [20 x i8]* %31, i64 0, i64 0
  %33 = load %struct.student*, %struct.student** %2, align 8
  %34 = getelementptr inbounds %struct.student, %struct.student* %33, i32 0, i32 2
  %35 = load %struct.student*, %struct.student** %2, align 8
  %36 = getelementptr inbounds %struct.student, %struct.student* %35, i32 0, i32 3
  %37 = load %struct.student*, %struct.student** %2, align 8
  %38 = getelementptr inbounds %struct.student, %struct.student* %37, i32 0, i32 4
  %39 = getelementptr inbounds [20 x i8], [20 x i8]* %38, i64 0, i64 0
  %40 = load %struct.student*, %struct.student** %2, align 8
  %41 = getelementptr inbounds %struct.student, %struct.student* %40, i32 0, i32 5
  %42 = getelementptr inbounds [20 x i8], [20 x i8]* %41, i64 0, i64 0
  %43 = call i32 (i8*, ...) @__isoc99_scanf(i8* getelementptr inbounds ([17 x i8], [17 x i8]* @.str, i64 0, i64 0), i8* %29, i8* %32, i8* %34, i32* %36, i8* %39, i8* %42)
  %44 = load %struct.student*, %struct.student** %2, align 8
  %45 = load %struct.student*, %struct.student** %3, align 8
  %46 = getelementptr inbounds %struct.student, %struct.student* %45, i32 0, i32 6
  store %struct.student* %44, %struct.student** %46, align 8
  %47 = load %struct.student*, %struct.student** %2, align 8
  store %struct.student* %47, %struct.student** %3, align 8
  br label %48

48:                                               ; preds = %0, %63
  %49 = call noalias i8* @malloc(i64 100) #4
  %50 = bitcast i8* %49 to %struct.student*
  store %struct.student* %50, %struct.student** %2, align 8
  %51 = load %struct.student*, %struct.student** %2, align 8
  %52 = getelementptr inbounds %struct.student, %struct.student* %51, i32 0, i32 0
  %53 = getelementptr inbounds [15 x i8], [15 x i8]* %52, i64 0, i64 0
  %54 = call i32 (i8*, ...) @__isoc99_scanf(i8* getelementptr inbounds ([3 x i8], [3 x i8]* @.str.1, i64 0, i64 0), i8* %53)
  %55 = load %struct.student*, %struct.student** %2, align 8
  %56 = getelementptr inbounds %struct.student, %struct.student* %55, i32 0, i32 0
  %57 = getelementptr inbounds [15 x i8], [15 x i8]* %56, i64 0, i64 0
  %58 = call i32 @strcmp(i8* %57, i8* getelementptr inbounds ([4 x i8], [4 x i8]* @.str.2, i64 0, i64 0)) #5
  %59 = icmp eq i32 %58, 0
  br i1 %59, label %60, label %63

60:                                               ; preds = %48
  %61 = load %struct.student*, %struct.student** %3, align 8
  %62 = getelementptr inbounds %struct.student, %struct.student* %61, i32 0, i32 6
  store %struct.student* null, %struct.student** %62, align 8
  br label %82

63:                                               ; preds = %48
  %64 = load %struct.student*, %struct.student** %2, align 8
  %65 = getelementptr inbounds %struct.student, %struct.student* %64, i32 0, i32 1
  %66 = getelementptr inbounds [20 x i8], [20 x i8]* %65, i64 0, i64 0
  %67 = load %struct.student*, %struct.student** %2, align 8
  %68 = getelementptr inbounds %struct.student, %struct.student* %67, i32 0, i32 2
  %69 = load %struct.student*, %struct.student** %2, align 8
  %70 = getelementptr inbounds %struct.student, %struct.student* %69, i32 0, i32 3
  %71 = load %struct.student*, %struct.student** %2, align 8
  %72 = getelementptr inbounds %struct.student, %struct.student* %71, i32 0, i32 4
  %73 = getelementptr inbounds [20 x i8], [20 x i8]* %72, i64 0, i64 0
  %74 = load %struct.student*, %struct.student** %2, align 8
  %75 = getelementptr inbounds %struct.student, %struct.student* %74, i32 0, i32 5
  %76 = getelementptr inbounds [20 x i8], [20 x i8]* %75, i64 0, i64 0
  %77 = call i32 (i8*, ...) @__isoc99_scanf(i8* getelementptr inbounds ([15 x i8], [15 x i8]* @.str.3, i64 0, i64 0), i8* %66, i8* %68, i32* %70, i8* %73, i8* %76)
  %78 = load %struct.student*, %struct.student** %2, align 8
  %79 = load %struct.student*, %struct.student** %3, align 8
  %80 = getelementptr inbounds %struct.student, %struct.student* %79, i32 0, i32 6
  store %struct.student* %78, %struct.student** %80, align 8
  %81 = load %struct.student*, %struct.student** %2, align 8
  store %struct.student* %81, %struct.student** %3, align 8
  br label %48

82:                                               ; preds = %60
  %83 = load %struct.student*, %struct.student** %1, align 8
  ret %struct.student* %83
}

; Function Attrs: nounwind
declare dso_local noalias i8* @malloc(i64) #1

declare dso_local i32 @__isoc99_scanf(i8*, ...) #2

; Function Attrs: nounwind readonly
declare dso_local i32 @strcmp(i8*, i8*) #3

; Function Attrs: noinline nounwind uwtable
define dso_local i32 @main() #0 {
  %1 = alloca i32, align 4
  %2 = alloca %struct.student*, align 8
  %3 = alloca %struct.student*, align 8
  %4 = alloca %struct.student*, align 8
  %5 = alloca %struct.student*, align 8
  %6 = alloca i32, align 4
  %7 = alloca i32, align 4
  %8 = alloca i32, align 4
  store i32 0, i32* %1, align 4
  store i32 1, i32* %8, align 4
  %9 = call %struct.student* @set()
  store %struct.student* %9, %struct.student** %2, align 8
  %10 = load %struct.student*, %struct.student** %2, align 8
  store %struct.student* %10, %struct.student** %3, align 8
  %11 = load %struct.student*, %struct.student** %3, align 8
  %12 = getelementptr inbounds %struct.student, %struct.student* %11, i32 0, i32 6
  %13 = load %struct.student*, %struct.student** %12, align 8
  store %struct.student* %13, %struct.student** %3, align 8
  %14 = load %struct.student*, %struct.student** %3, align 8
  %15 = getelementptr inbounds %struct.student, %struct.student* %14, i32 0, i32 6
  %16 = load %struct.student*, %struct.student** %15, align 8
  store %struct.student* %16, %struct.student** %3, align 8
  %17 = load %struct.student*, %struct.student** %2, align 8
  store %struct.student* %17, %struct.student** %4, align 8
  %18 = load %struct.student*, %struct.student** %4, align 8
  %19 = getelementptr inbounds %struct.student, %struct.student* %18, i32 0, i32 6
  %20 = load %struct.student*, %struct.student** %19, align 8
  store %struct.student* %20, %struct.student** %4, align 8
  %21 = load %struct.student*, %struct.student** %2, align 8
  store %struct.student* %21, %struct.student** %5, align 8
  br label %22

22:                                               ; preds = %25, %0
  %23 = load %struct.student*, %struct.student** %3, align 8
  %24 = icmp ne %struct.student* %23, null
  br i1 %24, label %25, label %34

25:                                               ; preds = %22
  %26 = load %struct.student*, %struct.student** %5, align 8
  %27 = load %struct.student*, %struct.student** %4, align 8
  %28 = getelementptr inbounds %struct.student, %struct.student* %27, i32 0, i32 6
  store %struct.student* %26, %struct.student** %28, align 8
  %29 = load %struct.student*, %struct.student** %4, align 8
  store %struct.student* %29, %struct.student** %5, align 8
  %30 = load %struct.student*, %struct.student** %3, align 8
  store %struct.student* %30, %struct.student** %4, align 8
  %31 = load %struct.student*, %struct.student** %3, align 8
  %32 = getelementptr inbounds %struct.student, %struct.student* %31, i32 0, i32 6
  %33 = load %struct.student*, %struct.student** %32, align 8
  store %struct.student* %33, %struct.student** %3, align 8
  br label %22

34:                                               ; preds = %22
  %35 = load %struct.student*, %struct.student** %5, align 8
  %36 = load %struct.student*, %struct.student** %4, align 8
  %37 = getelementptr inbounds %struct.student, %struct.student* %36, i32 0, i32 6
  store %struct.student* %35, %struct.student** %37, align 8
  %38 = load %struct.student*, %struct.student** %2, align 8
  %39 = getelementptr inbounds %struct.student, %struct.student* %38, i32 0, i32 6
  store %struct.student* null, %struct.student** %39, align 8
  %40 = load %struct.student*, %struct.student** %4, align 8
  store %struct.student* %40, %struct.student** %3, align 8
  br label %41

41:                                               ; preds = %44, %34
  %42 = load %struct.student*, %struct.student** %3, align 8
  %43 = icmp ne %struct.student* %42, null
  br i1 %43, label %44, label %68

44:                                               ; preds = %41
  %45 = load %struct.student*, %struct.student** %3, align 8
  %46 = getelementptr inbounds %struct.student, %struct.student* %45, i32 0, i32 0
  %47 = getelementptr inbounds [15 x i8], [15 x i8]* %46, i64 0, i64 0
  %48 = load %struct.student*, %struct.student** %3, align 8
  %49 = getelementptr inbounds %struct.student, %struct.student* %48, i32 0, i32 1
  %50 = getelementptr inbounds [20 x i8], [20 x i8]* %49, i64 0, i64 0
  %51 = load %struct.student*, %struct.student** %3, align 8
  %52 = getelementptr inbounds %struct.student, %struct.student* %51, i32 0, i32 2
  %53 = load i8, i8* %52, align 1
  %54 = sext i8 %53 to i32
  %55 = load %struct.student*, %struct.student** %3, align 8
  %56 = getelementptr inbounds %struct.student, %struct.student* %55, i32 0, i32 3
  %57 = load i32, i32* %56, align 4
  %58 = load %struct.student*, %struct.student** %3, align 8
  %59 = getelementptr inbounds %struct.student, %struct.student* %58, i32 0, i32 4
  %60 = getelementptr inbounds [20 x i8], [20 x i8]* %59, i64 0, i64 0
  %61 = load %struct.student*, %struct.student** %3, align 8
  %62 = getelementptr inbounds %struct.student, %struct.student* %61, i32 0, i32 5
  %63 = getelementptr inbounds [20 x i8], [20 x i8]* %62, i64 0, i64 0
  %64 = call i32 (i8*, ...) @printf(i8* getelementptr inbounds ([19 x i8], [19 x i8]* @.str.4, i64 0, i64 0), i8* %47, i8* %50, i32 %54, i32 %57, i8* %60, i8* %63)
  %65 = load %struct.student*, %struct.student** %3, align 8
  %66 = getelementptr inbounds %struct.student, %struct.student* %65, i32 0, i32 6
  %67 = load %struct.student*, %struct.student** %66, align 8
  store %struct.student* %67, %struct.student** %3, align 8
  br label %41

68:                                               ; preds = %41
  ret i32 0
}

declare dso_local i32 @printf(i8*, ...) #2


!llvm.module.flags = !{!0}
!llvm.ident = !{!1}

!0 = !{i32 1, !"wchar_size", i32 4}
!1 = !{!"clang version 10.0.0-4ubuntu1 "}
